; Function Attrs: mustprogress nofree norecurse nosync nounwind null_pointer_is_valid sspstrong willreturn memory(argmem: read) uwtable
define internal range(i32 0, 2) i32 @ros_info_equal_matched(ptr noundef readonly captures(none) %0, ptr noundef readonly captures(none) %1) #6 {
  %3 = getelementptr inbounds nuw i8, ptr %0, i64 4
  %4 = load i32, ptr %3, align 4
  %.not = icmp eq i32 %4, 0
  br i1 %.not, label %8, label %5

5:                                                ; preds = %2
  %6 = getelementptr inbounds nuw i8, ptr %1, i64 4
  %7 = load i32, ptr %6, align 4
  %.not10 = icmp eq i32 %7, 0
  %.not11 = icmp eq i32 %4, %7
  %or.cond = or i1 %.not10, %.not11
  br i1 %or.cond, label %8, label %15

8:                                                ; preds = %5, %2
  %9 = getelementptr inbounds nuw i8, ptr %0, i64 28
  %10 = load i32, ptr %9, align 4
  %11 = getelementptr inbounds nuw i8, ptr %1, i64 28
  %12 = load i32, ptr %11, align 4
  %13 = icmp eq i32 %10, %12
  %14 = zext i1 %13 to i32
  br label %15

15:                                               ; preds = %5, %8
  %.0 = phi i32 [ %14, %8 ], [ 0, %5 ]
  ret i32 %.0
}